; Function Attrs: alwaysinline norecurse nounwind uwtable
define internal void @_ZNK4ncnn14Interp_x86_avx7forwardERKSt6vectorINS_3MatESaIS2_EERS4_RKNS_6OptionE.omp_outlined.6(ptr noalias noundef readonly captures(none) %0, ptr noalias readnone captures(none) %1, ptr noundef nonnull readonly align 4 captures(none) dereferenceable(4) %2, ptr noundef nonnull readonly align 8 captures(none) dereferenceable(72) %3, ptr noundef nonnull readonly align 8 captures(none) dereferenceable(72) %4, ptr noundef nonnull readonly align 4 captures(none) dereferenceable(4) %5, ptr noundef nonnull readonly align 4 captures(none) dereferenceable(4) %6, ptr noundef nonnull readonly align 4 captures(none) dereferenceable(4) %7) #9 personality ptr @__gxx_personality_v0 {
  %9 = alloca i32, align 4
  %10 = alloca i32, align 4
  %11 = alloca i32, align 4
  %12 = alloca i32, align 4
  %13 = load i32, ptr %2, align 4, !tbaa !16
  %14 = icmp sgt i32 %13, 0
  br i1 %14, label %15, label %60

15:                                               ; preds = %8
  %16 = add nsw i32 %13, -1
  call void @llvm.lifetime.start.p0(i64 4, ptr nonnull %9) #6
  store i32 0, ptr %9, align 4, !tbaa !16
  call void @llvm.lifetime.start.p0(i64 4, ptr nonnull %10) #6
  store i32 %16, ptr %10, align 4, !tbaa !16
  call void @llvm.lifetime.start.p0(i64 4, ptr nonnull %11) #6
  store i32 1, ptr %11, align 4, !tbaa !16
  call void @llvm.lifetime.start.p0(i64 4, ptr nonnull %12) #6
  store i32 0, ptr %12, align 4, !tbaa !16
  %17 = load i32, ptr %0, align 4, !tbaa !16
  call void @__kmpc_for_static_init_4(ptr nonnull @1, i32 %17, i32 34, ptr nonnull %12, ptr nonnull %9, ptr nonnull %10, ptr nonnull %11, i32 1, i32 1)
  %18 = load i32, ptr %10, align 4, !tbaa !16
  %19 = call i32 @llvm.smin.i32(i32 %18, i32 %16)
  store i32 %19, ptr %10, align 4, !tbaa !16
  %20 = load i32, ptr %9, align 4, !tbaa !16
  %.not34 = icmp sgt i32 %20, %19
  br i1 %.not34, label %._crit_edge38, label %.lr.ph37

.lr.ph37:                                         ; preds = %15
  %21 = getelementptr inbounds nuw i8, ptr %3, i64 44
  %22 = getelementptr inbounds nuw i8, ptr %3, i64 16
  %23 = getelementptr inbounds nuw i8, ptr %4, i64 44
  %24 = getelementptr inbounds nuw i8, ptr %4, i64 16
  %25 = load i32, ptr %5, align 4, !tbaa !16
  %26 = icmp sgt i32 %25, 0
  br i1 %26, label %.lr.ph37.split.preheader, label %._crit_edge38

.lr.ph37.split.preheader:                         ; preds = %.lr.ph37
  %27 = sext i32 %20 to i64
  %28 = add nsw i32 %19, 1
  br label %.lr.ph37.split

.lr.ph37.split:                                   ; preds = %.lr.ph37.split.preheader, %._crit_edge
  %29 = phi i32 [ %25, %.lr.ph37.split.preheader ], [ %45, %._crit_edge ]
  %indvars.iv = phi i64 [ %27, %.lr.ph37.split.preheader ], [ %indvars.iv.next, %._crit_edge ]
  %30 = load ptr, ptr %3, align 8, !tbaa !25
  %31 = load i32, ptr %21, align 4, !tbaa !17
  %32 = sext i32 %31 to i64
  %33 = mul nsw i64 %indvars.iv, %32
  %34 = load i64, ptr %22, align 8, !tbaa !20
  %35 = mul i64 %33, %34
  %36 = getelementptr inbounds nuw i8, ptr %30, i64 %35
  %37 = icmp sgt i32 %29, 0
  br i1 %37, label %.lr.ph.preheader, label %._crit_edge

.lr.ph.preheader:                                 ; preds = %.lr.ph37.split
  %38 = load ptr, ptr %4, align 8, !tbaa !25
  %39 = load i32, ptr %23, align 4, !tbaa !17
  %40 = sext i32 %39 to i64
  %41 = mul nsw i64 %indvars.iv, %40
  %42 = load i64, ptr %24, align 8, !tbaa !20
  %43 = mul i64 %41, %42
  %44 = getelementptr inbounds nuw i8, ptr %38, i64 %43
  br label %.lr.ph

._crit_edge:                                      ; preds = %.lr.ph, %.lr.ph37.split
  %45 = phi i32 [ %29, %.lr.ph37.split ], [ %58, %.lr.ph ]
  %indvars.iv.next = add nsw i64 %indvars.iv, 1
  %lftr.wideiv = trunc i64 %indvars.iv.next to i32
  %exitcond.not = icmp eq i32 %28, %lftr.wideiv
  br i1 %exitcond.not, label %._crit_edge38, label %.lr.ph37.split, !llvm.loop !82

.lr.ph:                                           ; preds = %.lr.ph.preheader, %.lr.ph
  %.02733 = phi ptr [ %56, %.lr.ph ], [ %44, %.lr.ph.preheader ]
  %.02832 = phi i32 [ %57, %.lr.ph ], [ 0, %.lr.ph.preheader ]
  %46 = uitofp nneg i32 %.02832 to float
  %47 = load float, ptr %6, align 4, !tbaa !49
  %48 = fmul fast float %47, %46
  %49 = fptosi float %48 to i32
  %50 = load i32, ptr %7, align 4, !tbaa !16
  %51 = add nsw i32 %50, -1
  %.sroa.speculated = call i32 @llvm.smin.i32(i32 %51, i32 %49)
  %52 = shl nsw i32 %.sroa.speculated, 2
  %53 = sext i32 %52 to i64
  %54 = getelementptr inbounds float, ptr %36, i64 %53
  %55 = load <4 x float>, ptr %54, align 16, !tbaa !60
  store <4 x float> %55, ptr %.02733, align 16, !tbaa !60
  %56 = getelementptr inbounds nuw i8, ptr %.02733, i64 16
  %57 = add nuw nsw i32 %.02832, 1
  %58 = load i32, ptr %5, align 4, !tbaa !16
  %59 = icmp slt i32 %57, %58
  br i1 %59, label %.lr.ph, label %._crit_edge, !llvm.loop !83

._crit_edge38:                                    ; preds = %._crit_edge, %.lr.ph37, %15
  call void @__kmpc_for_static_fini(ptr nonnull @1, i32 %17)
  call void @llvm.lifetime.end.p0(i64 4, ptr nonnull %12) #6
  call void @llvm.lifetime.end.p0(i64 4, ptr nonnull %11) #6
  call void @llvm.lifetime.end.p0(i64 4, ptr nonnull %10) #6
  call void @llvm.lifetime.end.p0(i64 4, ptr nonnull %9) #6
  br label %60

60:                                               ; preds = %._crit_edge38, %8
  ret void
}